target datalayout = "e-m:e-p270:32:32-p271:32:32-p272:64:64-i64:64-i128:128-f80:128-n8:16:32:64-S128"
target triple = "x86_64-pc-linux-gnu"

%struct.ident_t = type { i32, i32, i32, i32, ptr }
%"class.std::__cxx11::basic_string" = type { %"struct.std::__cxx11::basic_string<char>::_Alloc_hider", i64, %union.anon }
%"struct.std::__cxx11::basic_string<char>::_Alloc_hider" = type { ptr }
%union.anon = type { i64, [8 x i8] }
%"struct.faiss::IndexNNDescent" = type { %"struct.faiss::Index.base", %"struct.faiss::NNDescent", i8, ptr }
%"struct.faiss::Index.base" = type <{ ptr, i32, [4 x i8], i64, i8, i8, [2 x i8], i32, float }>
%"struct.faiss::NNDescent" = type { i8, i32, i32, i32, i32, i32, i32, i32, i32, i32, %"class.std::vector", %"class.std::vector.0" }
%"class.std::vector" = type { %"struct.std::_Vector_base" }
%"struct.std::_Vector_base" = type { %"struct.std::_Vector_base<faiss::nndescent::Nhood, std::allocator<faiss::nndescent::Nhood>>::_Vector_impl" }
%"struct.std::_Vector_base<faiss::nndescent::Nhood, std::allocator<faiss::nndescent::Nhood>>::_Vector_impl" = type { %"struct.std::_Vector_base<faiss::nndescent::Nhood, std::allocator<faiss::nndescent::Nhood>>::_Vector_impl_data" }
%"struct.std::_Vector_base<faiss::nndescent::Nhood, std::allocator<faiss::nndescent::Nhood>>::_Vector_impl_data" = type { ptr, ptr, ptr }
%"class.std::vector.0" = type { %"struct.std::_Vector_base.1" }
%"struct.std::_Vector_base.1" = type { %"struct.std::_Vector_base<int, std::allocator<int>>::_Vector_impl" }
%"struct.std::_Vector_base<int, std::allocator<int>>::_Vector_impl" = type { %"struct.std::_Vector_base<int, std::allocator<int>>::_Vector_impl_data" }
%"struct.std::_Vector_base<int, std::allocator<int>>::_Vector_impl_data" = type { ptr, ptr, ptr }
%"struct.faiss::Index" = type <{ ptr, i32, [4 x i8], i64, i8, i8, [2 x i8], i32, float, [4 x i8] }>

@.str = private unnamed_addr constant [99 x i8] c"Error: '%s' failed: Please use IndexNNDescentFlat (or variants) instead of IndexNNDescent directly\00", align 1
@.str.1 = private unnamed_addr constant [8 x i8] c"storage\00", align 1
@.str.2 = private unnamed_addr constant [114 x i8] c"generated/home/dtcxzyw/WorkSpace/Projects/compilers/llvm-opt-benchmark/bench/faiss/faiss/faiss/IndexNNDescent.cpp\00", align 1
@_ZTIN5faiss14FaissExceptionE = external constant ptr
@.str.3 = private unnamed_addr constant [63 x i8] c"Error: '%s' failed: search params not supported for this index\00", align 1
@.str.4 = private unnamed_addr constant [8 x i8] c"!params\00", align 1
@__PRETTY_FUNCTION__._ZNK5faiss14IndexNNDescent6searchElPKflPfPlPKNS_16SearchParametersE = private unnamed_addr constant [122 x i8] c"virtual void faiss::IndexNNDescent::search(idx_t, const float *, idx_t, float *, idx_t *, const SearchParameters *) const\00", align 1
@.str.5 = private unnamed_addr constant [32 x i8] c"Parameters: k=%ld, search_L=%d\0A\00", align 1
@3 = private unnamed_addr constant %struct.ident_t { i32 0, i32 2, i32 0, i32 22, ptr @0 }, align 8

; Function Attrs: mustprogress nounwind uwtable
define linkonce_odr noundef nonnull align 8 dereferenceable(8) ptr @_ZSt3minIlERKT_S2_S2_(ptr noundef nonnull align 8 dereferenceable(8) %0, ptr noundef nonnull align 8 dereferenceable(8) %1) #0 comdat {
  %3 = alloca ptr, align 8
  %4 = alloca ptr, align 8
  %5 = alloca ptr, align 8
  store ptr %0, ptr %4, align 8
  store ptr %1, ptr %5, align 8
  %6 = load ptr, ptr %5, align 8
  %7 = load i64, ptr %6, align 8
  %8 = load ptr, ptr %4, align 8
  %9 = load i64, ptr %8, align 8
  %10 = icmp slt i64 %7, %9
  br i1 %10, label %11, label %13

11:                                               ; preds = %2
  %12 = load ptr, ptr %5, align 8
  store ptr %12, ptr %3, align 8
  br label %15

13:                                               ; preds = %2
  %14 = load ptr, ptr %4, align 8
  store ptr %14, ptr %3, align 8
  br label %15

15:                                               ; preds = %13, %11
  %16 = load ptr, ptr %3, align 8
  ret ptr %16
}

; Function Attrs: mustprogress uwtable
define void @_ZNK5faiss14IndexNNDescent6searchElPKflPfPlPKNS_16SearchParametersE(ptr noundef nonnull align 8 dereferenceable(144) %0, i64 noundef %1, ptr noundef %2, i64 noundef %3, ptr noundef %4, ptr noundef %5, ptr noundef %6) unnamed_addr #1 align 2 personality ptr @__gxx_personality_v0 {
  %8 = alloca ptr, align 8
  %9 = alloca i64, align 8
  %10 = alloca ptr, align 8
  %11 = alloca i64, align 8
  %12 = alloca ptr, align 8
  %13 = alloca ptr, align 8
  %14 = alloca ptr, align 8
  %15 = alloca %"class.std::__cxx11::basic_string", align 8
  %16 = alloca i32, align 4
  %17 = alloca ptr, align 8
  %18 = alloca i32, align 4
  %19 = alloca %"class.std::__cxx11::basic_string", align 8
  %20 = alloca i32, align 4
  %21 = alloca i64, align 8
  %22 = alloca i64, align 8
  %23 = alloca i64, align 8
  %24 = alloca i64, align 8
  %25 = alloca i64, align 8
  store ptr %0, ptr %8, align 8
  store i64 %1, ptr %9, align 8
  store ptr %2, ptr %10, align 8
  store i64 %3, ptr %11, align 8
  store ptr %4, ptr %12, align 8
  store ptr %5, ptr %13, align 8
  store ptr %6, ptr %14, align 8
  %26 = load ptr, ptr %8, align 8
  br label %27

27:                                               ; preds = %7
  %28 = load ptr, ptr %14, align 8
  %29 = icmp ne ptr %28, null
  br i1 %29, label %30, label %53

30:                                               ; preds = %27
  br label %31

31:                                               ; preds = %30
  call void @_ZNSt7__cxx1112basic_stringIcSt11char_traitsIcESaIcEEC1Ev(ptr noundef nonnull align 8 dereferenceable(32) %15) #7
  %32 = call i32 (ptr, i64, ptr, ...) @snprintf(ptr noundef null, i64 noundef 0, ptr noundef @.str.3, ptr noundef @.str.4) #7
  store i32 %32, ptr %16, align 4
  %33 = load i32, ptr %16, align 4
  %34 = add nsw i32 %33, 1
  %35 = sext i32 %34 to i64
  invoke void @_ZNSt7__cxx1112basic_stringIcSt11char_traitsIcESaIcEE6resizeEm(ptr noundef nonnull align 8 dereferenceable(32) %15, i64 noundef %35)
          to label %36 unwind label %43

36:                                               ; preds = %31
  %37 = invoke noundef nonnull align 1 dereferenceable(1) ptr @_ZNSt7__cxx1112basic_stringIcSt11char_traitsIcESaIcEEixEm(ptr noundef nonnull align 8 dereferenceable(32) %15, i64 noundef 0)
          to label %38 unwind label %43

38:                                               ; preds = %36
  %39 = call noundef i64 @_ZNKSt7__cxx1112basic_stringIcSt11char_traitsIcESaIcEE4sizeEv(ptr noundef nonnull align 8 dereferenceable(32) %15) #7
  %40 = call i32 (ptr, i64, ptr, ...) @snprintf(ptr noundef %37, i64 noundef %39, ptr noundef @.str.3, ptr noundef @.str.4) #7
  %41 = call ptr @__cxa_allocate_exception(i64 40) #7
  invoke void @_ZN5faiss14FaissExceptionC1ERKNSt7__cxx1112basic_stringIcSt11char_traitsIcESaIcEEEPKcSA_i(ptr noundef nonnull align 8 dereferenceable(40) %41, ptr noundef nonnull align 8 dereferenceable(32) %15, ptr noundef @__PRETTY_FUNCTION__._ZNK5faiss14IndexNNDescent6searchElPKflPfPlPKNS_16SearchParametersE, ptr noundef @.str.2, i32 noundef 140)
          to label %42 unwind label %47

42:                                               ; preds = %38
  invoke void @__cxa_throw(ptr %41, ptr @_ZTIN5faiss14FaissExceptionE, ptr @_ZN5faiss14FaissExceptionD2Ev) #14
          to label %146 unwind label %43

43:                                               ; preds = %42, %36, %31
  %44 = landingpad { ptr, i32 }
          cleanup
  %45 = extractvalue { ptr, i32 } %44, 0
  store ptr %45, ptr %17, align 8
  %46 = extractvalue { ptr, i32 } %44, 1
  store i32 %46, ptr %18, align 4
  br label %51

47:                                               ; preds = %38
  %48 = landingpad { ptr, i32 }
          cleanup
  %49 = extractvalue { ptr, i32 } %48, 0
  store ptr %49, ptr %17, align 8
  %50 = extractvalue { ptr, i32 } %48, 1
  store i32 %50, ptr %18, align 4
  call void @__cxa_free_exception(ptr %41) #7
  br label %51

51:                                               ; preds = %47, %43
  call void @_ZNSt7__cxx1112basic_stringIcSt11char_traitsIcESaIcEED1Ev(ptr noundef nonnull align 8 dereferenceable(32) %15) #7
  br label %141

52:                                               ; No predecessors!
  br label %53

53:                                               ; preds = %52, %27
  br label %54

54:                                               ; preds = %53
  br label %55

55:                                               ; preds = %54
  %56 = getelementptr inbounds %"struct.faiss::IndexNNDescent", ptr %26, i32 0, i32 3
  %57 = load ptr, ptr %56, align 8
  %58 = icmp ne ptr %57, null
  br i1 %58, label %82, label %59

59:                                               ; preds = %55
  br label %60

60:                                               ; preds = %59
  call void @_ZNSt7__cxx1112basic_stringIcSt11char_traitsIcESaIcEEC1Ev(ptr noundef nonnull align 8 dereferenceable(32) %19) #7
  %61 = call i32 (ptr, i64, ptr, ...) @snprintf(ptr noundef null, i64 noundef 0, ptr noundef @.str, ptr noundef @.str.1) #7
  store i32 %61, ptr %20, align 4
  %62 = load i32, ptr %20, align 4
  %63 = add nsw i32 %62, 1
  %64 = sext i32 %63 to i64
  invoke void @_ZNSt7__cxx1112basic_stringIcSt11char_traitsIcESaIcEE6resizeEm(ptr noundef nonnull align 8 dereferenceable(32) %19, i64 noundef %64)
          to label %65 unwind label %72

65:                                               ; preds = %60
  %66 = invoke noundef nonnull align 1 dereferenceable(1) ptr @_ZNSt7__cxx1112basic_stringIcSt11char_traitsIcESaIcEEixEm(ptr noundef nonnull align 8 dereferenceable(32) %19, i64 noundef 0)
          to label %67 unwind label %72

67:                                               ; preds = %65
  %68 = call noundef i64 @_ZNKSt7__cxx1112basic_stringIcSt11char_traitsIcESaIcEE4sizeEv(ptr noundef nonnull align 8 dereferenceable(32) %19) #7
  %69 = call i32 (ptr, i64, ptr, ...) @snprintf(ptr noundef %66, i64 noundef %68, ptr noundef @.str, ptr noundef @.str.1) #7
  %70 = call ptr @__cxa_allocate_exception(i64 40) #7
  invoke void @_ZN5faiss14FaissExceptionC1ERKNSt7__cxx1112basic_stringIcSt11char_traitsIcESaIcEEEPKcSA_i(ptr noundef nonnull align 8 dereferenceable(40) %70, ptr noundef nonnull align 8 dereferenceable(32) %19, ptr noundef @__PRETTY_FUNCTION__._ZNK5faiss14IndexNNDescent6searchElPKflPfPlPKNS_16SearchParametersE, ptr noundef @.str.2, i32 noundef 144)
          to label %71 unwind label %76

71:                                               ; preds = %67
  invoke void @__cxa_throw(ptr %70, ptr @_ZTIN5faiss14FaissExceptionE, ptr @_ZN5faiss14FaissExceptionD2Ev) #14
          to label %146 unwind label %72

72:                                               ; preds = %71, %65, %60
  %73 = landingpad { ptr, i32 }
          cleanup
  %74 = extractvalue { ptr, i32 } %73, 0
  store ptr %74, ptr %17, align 8
  %75 = extractvalue { ptr, i32 } %73, 1
  store i32 %75, ptr %18, align 4
  br label %80

76:                                               ; preds = %67
  %77 = landingpad { ptr, i32 }
          cleanup
  %78 = extractvalue { ptr, i32 } %77, 0
  store ptr %78, ptr %17, align 8
  %79 = extractvalue { ptr, i32 } %77, 1
  store i32 %79, ptr %18, align 4
  call void @__cxa_free_exception(ptr %70) #7
  br label %80

80:                                               ; preds = %76, %72
  call void @_ZNSt7__cxx1112basic_stringIcSt11char_traitsIcESaIcEED1Ev(ptr noundef nonnull align 8 dereferenceable(32) %19) #7
  br label %141

81:                                               ; No predecessors!
  br label %82

82:                                               ; preds = %81, %55
  br label %83

83:                                               ; preds = %82
  %84 = getelementptr inbounds %"struct.faiss::Index", ptr %26, i32 0, i32 4
  %85 = load i8, ptr %84, align 8
  %86 = trunc i8 %85 to i1
  br i1 %86, label %87, label %93

87:                                               ; preds = %83
  %88 = load i64, ptr %11, align 8
  %89 = getelementptr inbounds %"struct.faiss::IndexNNDescent", ptr %26, i32 0, i32 1
  %90 = getelementptr inbounds %"struct.faiss::NNDescent", ptr %89, i32 0, i32 4
  %91 = load i32, ptr %90, align 8
  %92 = call i32 (ptr, ...) @printf(ptr noundef @.str.5, i64 noundef %88, i32 noundef %91)
  br label %93

93:                                               ; preds = %87, %83
  %94 = getelementptr inbounds %"struct.faiss::Index", ptr %26, i32 0, i32 1
  %95 = load i32, ptr %94, align 8
  %96 = getelementptr inbounds %"struct.faiss::IndexNNDescent", ptr %26, i32 0, i32 1
  %97 = getelementptr inbounds %"struct.faiss::NNDescent", ptr %96, i32 0, i32 4
  %98 = load i32, ptr %97, align 8
  %99 = mul nsw i32 %95, %98
  %100 = sext i32 %99 to i64
  %101 = call noundef i64 @_ZN5faiss17InterruptCallback15get_period_hintEm(i64 noundef %100)
  store i64 %101, ptr %21, align 8
  store i64 0, ptr %22, align 8
  br label %102

102:                                              ; preds = %112, %93
  %103 = load i64, ptr %22, align 8
  %104 = load i64, ptr %9, align 8
  %105 = icmp slt i64 %103, %104
  br i1 %105, label %106, label %116

106:                                              ; preds = %102
  %107 = load i64, ptr %22, align 8
  %108 = load i64, ptr %21, align 8
  %109 = add nsw i64 %107, %108
  store i64 %109, ptr %24, align 8
  %110 = call noundef nonnull align 8 dereferenceable(8) ptr @_ZSt3minIlERKT_S2_S2_(ptr noundef nonnull align 8 dereferenceable(8) %24, ptr noundef nonnull align 8 dereferenceable(8) %9)
  %111 = load i64, ptr %110, align 8
  store i64 %111, ptr %23, align 8
  call void (ptr, i32, ptr, ...) @__kmpc_fork_call(ptr @3, i32 7, ptr @_ZNK5faiss14IndexNNDescent6searchElPKflPfPlPKNS_16SearchParametersE.omp_outlined, ptr %26, ptr %23, ptr %22, ptr %13, ptr %11, ptr %12, ptr %10)
  call void @_ZN5faiss17InterruptCallback5checkEv()
  br label %112

112:                                              ; preds = %106
  %113 = load i64, ptr %21, align 8
  %114 = load i64, ptr %22, align 8
  %115 = add nsw i64 %114, %113
  store i64 %115, ptr %22, align 8
  br label %102, !llvm.loop !5

116:                                              ; preds = %102
  %117 = getelementptr inbounds %"struct.faiss::Index", ptr %26, i32 0, i32 7
  %118 = load i32, ptr %117, align 4
  %119 = icmp eq i32 %118, 0
  br i1 %119, label %120, label %140

120:                                              ; preds = %116
  store i64 0, ptr %25, align 8
  br label %121

121:                                              ; preds = %136, %120
  %122 = load i64, ptr %25, align 8
  %123 = load i64, ptr %11, align 8
  %124 = load i64, ptr %9, align 8
  %125 = mul nsw i64 %123, %124
  %126 = icmp ult i64 %122, %125
  br i1 %126, label %127, label %139

127:                                              ; preds = %121
  %128 = load ptr, ptr %12, align 8
  %129 = load i64, ptr %25, align 8
  %130 = getelementptr inbounds float, ptr %128, i64 %129
  %131 = load float, ptr %130, align 4
  %132 = fneg float %131
  %133 = load ptr, ptr %12, align 8
  %134 = load i64, ptr %25, align 8
  %135 = getelementptr inbounds float, ptr %133, i64 %134
  store float %132, ptr %135, align 4
  br label %136

136:                                              ; preds = %127
  %137 = load i64, ptr %25, align 8
  %138 = add i64 %137, 1
  store i64 %138, ptr %25, align 8
  br label %121, !llvm.loop !7

139:                                              ; preds = %121
  br label %140

140:                                              ; preds = %139, %116
  ret void

141:                                              ; preds = %80, %51
  %142 = load ptr, ptr %17, align 8
  %143 = load i32, ptr %18, align 4
  %144 = insertvalue { ptr, i32 } poison, ptr %142, 0
  %145 = insertvalue { ptr, i32 } %144, i32 %143, 1
  resume { ptr, i32 } %145

146:                                              ; preds = %71, %42
  unreachable
}